(dp0
S'10.10.4.24'
p1
S'Avtozavodskaya'
p2
sS'10.10.4.25'
p3
S'Rusakovskaya'
p4
sS'10.10.4.20'
p5
S'Mira'
p6
sS'10.10.4.21'
p7
S'Varshavskoe obl'
p8
sS'10.10.4.23'
p9
S'Domodedovo'
p10
sS'10.10.4.9'
p11
S'Entuziastov'
p12
sS'10.10.4.8'
p13
S'Yaroslavskoe'
p14
sS'10.10.4.5'
p15
S'Trofimova'
p16
sS'10.10.4.4'
p17
S'Test'
p18
sS'10.10.4.7'
p19
S'Bryansky Post'
p20
sS'10.10.4.6'
p21
S'Kutuzovsky'
p22
sS'10.10.4.19'
p23
S'Zvenigorodskoe'
p24
sS'10.10.4.11'
p25
S'Butyrsky'
p26
sS'10.10.4.10'
p27
S'Sokolniki'
p28
sS'10.10.4.13'
p29
S'Leningradsky'
p30
sS'10.10.4.12'
p31
S'Varshavskoe'
p32
sS'10.10.4.15'
p33
S'Volgogradsky'
p34
sS'update'
p35
(lp36
I25556417
asS'10.10.4.17'
p37
S'Volokolamka'
p38
sS'10.10.4.14'
p39
S'Kashirskoe'
p40
sS'10.10.5.230'
p41
S'sftp'
p42
sS'bot'
p43
ctelegram.bot
Bot
p44
(S'158279031:AAFJxyWbRKs0yyglhvswN6DlPhUxp9fDqtc'
p45
S'https://api.telegram.org/bot'
p46
tp47
Rp48
s.