(dp0
S'10.10.4.19'
p1
S'Zvenigorodskoe'
p2
sS'10.10.4.11'
p3
S'Butyrsky'
p4
sS'10.10.4.25'
p5
S'Rusakovskaya'
p6
sS'10.10.4.13'
p7
S'Leningradsky'
p8
sS'10.10.4.12'
p9
S'Varshavskoe'
p10
sS'10.10.4.15'
p11
S'Volgogradsky'
p12
sS'update'
p13
(lp14
I25556417
asS'10.10.4.17'
p15
S'Volokolamka'
p16
sS'10.10.4.21'
p17
S'Varshavskoe obl'
p18
sS'10.10.4.9'
p19
S'Entuziastov'
p20
sS'10.10.4.8'
p21
S'Yaroslavskoe'
p22
sS'10.10.4.23'
p23
S'Domodedovo'
p24
sS'10.10.4.5'
p25
S'Trofimova'
p26
sS'10.10.4.4'
p27
S'Test'
p28
sS'10.10.4.7'
p29
S'Bryansky Post'
p30
sS'10.10.4.6'
p31
S'Kutuzovsky'
p32
sS'bot'
p33
ctelegram.bot
Bot
p34
(S'158279031:AAFJxyWbRKs0yyglhvswN6DlPhUxp9fDqtc'
p35
S'https://api.telegram.org/bot'
p36
tp37
Rp38
sS'10.10.4.20'
p39
S'Mira'
p40
sS'10.10.4.24'
p41
S'Avtozavodskaya'
p42
sS'10.10.4.10'
p43
S'Sokolniki'
p44
sS'10.10.4.14'
p45
S'Kashirskoe'
p46
s.