(dp0
S'10.10.4.11'
p1
(lp2
I3
aI0
asS'10.10.4.10'
p3
(lp4
I3
aI0
asS'10.10.4.13'
p5
(lp6
I3
aI0
asS'10.10.4.12'
p7
(lp8
I3
aI0
asS'10.10.4.15'
p9
(lp10
I3
aI0
asS'10.10.4.14'
p11
(lp12
I3
aI0
asS'10.10.4.23'
p13
(lp14
I3
aI0
asS'10.10.4.9'
p15
(lp16
I3
aI0
asS'10.10.4.8'
p17
(lp18
I3
aI0
asS'10.10.4.5'
p19
(lp20
I3
aI0
asS'10.10.4.4'
p21
(lp22
I3
aI0
asS'10.10.4.7'
p23
(lp24
I3
aI0
asS'10.10.4.6'
p25
(lp26
I3
aI0
as.